target datalayout = "e-m:e-p270:32:32-p271:32:32-p272:64:64-i64:64-i128:128-f80:128-n8:16:32:64-S128"
target triple = "x86_64-pc-linux-gnu"

%struct.dt_masks_form_gui_t = type { ptr, ptr, ptr, i32, float, float, float, float, float, float, float, float, i32, i32, i32, i32, i32, i32, i32, i32, i32, i32, i32, i32, i32, i32, i32, i32, i32, i32, i32, i32, i32, i32, float, float, i32, i32, i32, i32, i32, i32, ptr, ptr, i32, i32, i64 }
%struct.dt_masks_form_gui_points_t = type { ptr, i32, ptr, i32, ptr, i32, i32 }

; Function Attrs: inlinehint nounwind uwtable
define internal i32 @_nb_ctrl_point() #7 {
  ret i32 3
}

; Function Attrs: inlinehint nounwind uwtable
define internal float @sqf(float noundef %0) #7 {
  %2 = alloca float, align 4
  store float %0, ptr %2, align 4, !tbaa !29
  %3 = load float, ptr %2, align 4, !tbaa !29
  %4 = load float, ptr %2, align 4, !tbaa !29
  %5 = fmul reassoc nsz arcp contract afn float %3, %4
  ret float %5
}

; Function Attrs: nounwind uwtable
define internal void @_gradient_get_distance(float noundef %0, float noundef %1, float noundef %2, ptr noundef %3, i32 noundef %4, i32 noundef %5, ptr noundef %6, ptr noundef %7, ptr noundef %8, ptr noundef %9, ptr noundef %10) #0 {
  %12 = alloca float, align 4
  %13 = alloca float, align 4
  %14 = alloca float, align 4
  %15 = alloca ptr, align 8
  %16 = alloca i32, align 4
  %17 = alloca i32, align 4
  %18 = alloca ptr, align 8
  %19 = alloca ptr, align 8
  %20 = alloca ptr, align 8
  %21 = alloca ptr, align 8
  %22 = alloca ptr, align 8
  %23 = alloca ptr, align 8
  %24 = alloca i32, align 4
  %25 = alloca float, align 4
  %26 = alloca float, align 4
  %27 = alloca i32, align 4
  %28 = alloca float, align 4
  %29 = alloca float, align 4
  %30 = alloca float, align 4
  %31 = alloca i32, align 4
  %32 = alloca float, align 4
  %33 = alloca float, align 4
  %34 = alloca float, align 4
  %35 = alloca i32, align 4
  %36 = alloca float, align 4
  %37 = alloca float, align 4
  %38 = alloca float, align 4
  store float %0, ptr %12, align 4, !tbaa !29
  store float %1, ptr %13, align 4, !tbaa !29
  store float %2, ptr %14, align 4, !tbaa !29
  store ptr %3, ptr %15, align 8, !tbaa !17
  store i32 %4, ptr %16, align 4, !tbaa !6
  store i32 %5, ptr %17, align 4, !tbaa !6
  store ptr %6, ptr %18, align 8, !tbaa !32
  store ptr %7, ptr %19, align 8, !tbaa !32
  store ptr %8, ptr %20, align 8, !tbaa !32
  store ptr %9, ptr %21, align 8, !tbaa !32
  store ptr %10, ptr %22, align 8, !tbaa !30
  %39 = load ptr, ptr %15, align 8, !tbaa !17
  %40 = icmp ne ptr %39, null
  br i1 %40, label %42, label %41

41:                                               ; preds = %11
  br label %217

42:                                               ; preds = %11
  %43 = load ptr, ptr %21, align 8, !tbaa !32
  store i32 0, ptr %43, align 4, !tbaa !6
  %44 = load ptr, ptr %19, align 8, !tbaa !32
  store i32 0, ptr %44, align 4, !tbaa !6
  %45 = load ptr, ptr %18, align 8, !tbaa !32
  store i32 0, ptr %45, align 4, !tbaa !6
  %46 = load ptr, ptr %20, align 8, !tbaa !32
  store i32 -1, ptr %46, align 4, !tbaa !6
  %47 = load ptr, ptr %22, align 8, !tbaa !30
  store float 0x47EFFFFFE0000000, ptr %47, align 4, !tbaa !29
  call void @llvm.lifetime.start.p0(i64 8, ptr %23) #11
  %48 = load ptr, ptr %15, align 8, !tbaa !17
  %49 = getelementptr inbounds nuw %struct.dt_masks_form_gui_t, ptr %48, i32 0, i32 0
  %50 = load ptr, ptr %49, align 8, !tbaa !50
  %51 = load i32, ptr %16, align 4, !tbaa !6
  %52 = call ptr @g_list_nth_data(ptr noundef %50, i32 noundef %51)
  store ptr %52, ptr %23, align 8, !tbaa !51
  %53 = load ptr, ptr %23, align 8, !tbaa !51
  %54 = icmp ne ptr %53, null
  br i1 %54, label %56, label %55

55:                                               ; preds = %42
  store i32 1, ptr %24, align 4
  br label %215

56:                                               ; preds = %42
  call void @llvm.lifetime.start.p0(i64 4, ptr %25) #11
  %57 = load float, ptr %14, align 4, !tbaa !29
  %58 = call reassoc nsz arcp contract afn float @sqf(float noundef %57)
  store float %58, ptr %25, align 4, !tbaa !29
  call void @llvm.lifetime.start.p0(i64 4, ptr %26) #11
  store float 0.000000e+00, ptr %26, align 4, !tbaa !29
  call void @llvm.lifetime.start.p0(i64 4, ptr %27) #11
  store i32 0, ptr %27, align 4, !tbaa !6
  br label %59

59:                                               ; preds = %106, %56
  %60 = load i32, ptr %27, align 4, !tbaa !6
  %61 = call i32 @_nb_ctrl_point()
  %62 = icmp slt i32 %60, %61
  br i1 %62, label %64, label %63

63:                                               ; preds = %59
  store i32 2, ptr %24, align 4
  call void @llvm.lifetime.end.p0(i64 4, ptr %27) #11
  br label %109

64:                                               ; preds = %59
  call void @llvm.lifetime.start.p0(i64 4, ptr %28) #11
  %65 = load float, ptr %12, align 4, !tbaa !29
  %66 = load ptr, ptr %23, align 8, !tbaa !51
  %67 = getelementptr inbounds nuw %struct.dt_masks_form_gui_points_t, ptr %66, i32 0, i32 0
  %68 = load ptr, ptr %67, align 8, !tbaa !53
  %69 = load i32, ptr %27, align 4, !tbaa !6
  %70 = mul nsw i32 %69, 2
  %71 = sext i32 %70 to i64
  %72 = getelementptr inbounds float, ptr %68, i64 %71
  %73 = load float, ptr %72, align 4, !tbaa !29
  %74 = fsub reassoc nsz arcp contract afn float %65, %73
  store float %74, ptr %28, align 4, !tbaa !29
  call void @llvm.lifetime.start.p0(i64 4, ptr %29) #11
  %75 = load float, ptr %13, align 4, !tbaa !29
  %76 = load ptr, ptr %23, align 8, !tbaa !51
  %77 = getelementptr inbounds nuw %struct.dt_masks_form_gui_points_t, ptr %76, i32 0, i32 0
  %78 = load ptr, ptr %77, align 8, !tbaa !53
  %79 = load i32, ptr %27, align 4, !tbaa !6
  %80 = mul nsw i32 %79, 2
  %81 = add nsw i32 %80, 1
  %82 = sext i32 %81 to i64
  %83 = getelementptr inbounds float, ptr %78, i64 %82
  %84 = load float, ptr %83, align 4, !tbaa !29
  %85 = fsub reassoc nsz arcp contract afn float %75, %84
  store float %85, ptr %29, align 4, !tbaa !29
  call void @llvm.lifetime.start.p0(i64 4, ptr %30) #11
  %86 = load float, ptr %28, align 4, !tbaa !29
  %87 = call reassoc nsz arcp contract afn float @sqf(float noundef %86)
  %88 = load float, ptr %29, align 4, !tbaa !29
  %89 = call reassoc nsz arcp contract afn float @sqf(float noundef %88)
  %90 = fadd reassoc nsz arcp contract afn float %87, %89
  store float %90, ptr %30, align 4, !tbaa !29
  %91 = load ptr, ptr %22, align 8, !tbaa !30
  %92 = load float, ptr %91, align 4, !tbaa !29
  %93 = load float, ptr %30, align 4, !tbaa !29
  %94 = call reassoc nsz arcp contract afn float @llvm.minnum.f32(float %92, float %93)
  %95 = load ptr, ptr %22, align 8, !tbaa !30
  store float %94, ptr %95, align 4, !tbaa !29
  %96 = load float, ptr %26, align 4, !tbaa !29
  %97 = fcmp reassoc nsz arcp contract afn une float %96, 0.000000e+00
  br i1 %97, label %102, label %98

98:                                               ; preds = %64
  %99 = load float, ptr %30, align 4, !tbaa !29
  %100 = load float, ptr %25, align 4, !tbaa !29
  %101 = fcmp reassoc nsz arcp contract afn olt float %99, %100
  br label %102

102:                                              ; preds = %98, %64
  %103 = phi i1 [ true, %64 ], [ %101, %98 ]
  %104 = zext i1 %103 to i32
  %105 = sitofp i32 %104 to float
  store float %105, ptr %26, align 4, !tbaa !29
  call void @llvm.lifetime.end.p0(i64 4, ptr %30) #11
  call void @llvm.lifetime.end.p0(i64 4, ptr %29) #11
  call void @llvm.lifetime.end.p0(i64 4, ptr %28) #11
  br label %106

106:                                              ; preds = %102
  %107 = load i32, ptr %27, align 4, !tbaa !6
  %108 = add nsw i32 %107, 1
  store i32 %108, ptr %27, align 4, !tbaa !6
  br label %59

109:                                              ; preds = %63
  %110 = load float, ptr %26, align 4, !tbaa !29
  %111 = fcmp reassoc nsz arcp contract afn une float %110, 0.000000e+00
  br i1 %111, label %112, label %114

112:                                              ; preds = %109
  %113 = load ptr, ptr %18, align 8, !tbaa !32
  store i32 1, ptr %113, align 4, !tbaa !6
  store i32 1, ptr %24, align 4
  br label %214

114:                                              ; preds = %109
  call void @llvm.lifetime.start.p0(i64 4, ptr %31) #11
  store i32 0, ptr %31, align 4, !tbaa !6
  br label %115

115:                                              ; preds = %158, %114
  %116 = load i32, ptr %31, align 4, !tbaa !6
  %117 = load ptr, ptr %23, align 8, !tbaa !51
  %118 = getelementptr inbounds nuw %struct.dt_masks_form_gui_points_t, ptr %117, i32 0, i32 3
  %119 = load i32, ptr %118, align 8, !tbaa !55
  %120 = icmp slt i32 %116, %119
  br i1 %120, label %122, label %121

121:                                              ; preds = %115
  store i32 5, ptr %24, align 4
  br label %161

122:                                              ; preds = %115
  call void @llvm.lifetime.start.p0(i64 4, ptr %32) #11
  %123 = load float, ptr %12, align 4, !tbaa !29
  %124 = load ptr, ptr %23, align 8, !tbaa !51
  %125 = getelementptr inbounds nuw %struct.dt_masks_form_gui_points_t, ptr %124, i32 0, i32 2
  %126 = load ptr, ptr %125, align 8, !tbaa !56
  %127 = load i32, ptr %31, align 4, !tbaa !6
  %128 = mul nsw i32 %127, 2
  %129 = sext i32 %128 to i64
  %130 = getelementptr inbounds float, ptr %126, i64 %129
  %131 = load float, ptr %130, align 4, !tbaa !29
  %132 = fsub reassoc nsz arcp contract afn float %123, %131
  store float %132, ptr %32, align 4, !tbaa !29
  call void @llvm.lifetime.start.p0(i64 4, ptr %33) #11
  %133 = load float, ptr %13, align 4, !tbaa !29
  %134 = load ptr, ptr %23, align 8, !tbaa !51
  %135 = getelementptr inbounds nuw %struct.dt_masks_form_gui_points_t, ptr %134, i32 0, i32 2
  %136 = load ptr, ptr %135, align 8, !tbaa !56
  %137 = load i32, ptr %31, align 4, !tbaa !6
  %138 = mul nsw i32 %137, 2
  %139 = add nsw i32 %138, 1
  %140 = sext i32 %139 to i64
  %141 = getelementptr inbounds float, ptr %136, i64 %140
  %142 = load float, ptr %141, align 4, !tbaa !29
  %143 = fsub reassoc nsz arcp contract afn float %133, %142
  store float %143, ptr %33, align 4, !tbaa !29
  call void @llvm.lifetime.start.p0(i64 4, ptr %34) #11
  %144 = load float, ptr %32, align 4, !tbaa !29
  %145 = call reassoc nsz arcp contract afn float @sqf(float noundef %144)
  %146 = load float, ptr %33, align 4, !tbaa !29
  %147 = call reassoc nsz arcp contract afn float @sqf(float noundef %146)
  %148 = fadd reassoc nsz arcp contract afn float %145, %147
  store float %148, ptr %34, align 4, !tbaa !29
  %149 = load float, ptr %34, align 4, !tbaa !29
  %150 = load float, ptr %25, align 4, !tbaa !29
  %151 = fcmp reassoc nsz arcp contract afn olt float %149, %150
  br i1 %151, label %152, label %154

152:                                              ; preds = %122
  %153 = load ptr, ptr %19, align 8, !tbaa !32
  store i32 1, ptr %153, align 4, !tbaa !6
  store i32 1, ptr %24, align 4
  br label %155

154:                                              ; preds = %122
  store i32 0, ptr %24, align 4
  br label %155

155:                                              ; preds = %154, %152
  call void @llvm.lifetime.end.p0(i64 4, ptr %34) #11
  call void @llvm.lifetime.end.p0(i64 4, ptr %33) #11
  call void @llvm.lifetime.end.p0(i64 4, ptr %32) #11
  %156 = load i32, ptr %24, align 4
  switch i32 %156, label %161 [
    i32 0, label %157
  ]

157:                                              ; preds = %155
  br label %158

158:                                              ; preds = %157
  %159 = load i32, ptr %31, align 4, !tbaa !6
  %160 = add nsw i32 %159, 1
  store i32 %160, ptr %31, align 4, !tbaa !6
  br label %115

161:                                              ; preds = %155, %121
  call void @llvm.lifetime.end.p0(i64 4, ptr %31) #11
  %162 = load i32, ptr %24, align 4
  switch i32 %162, label %214 [
    i32 5, label %163
  ]

163:                                              ; preds = %161
  call void @llvm.lifetime.start.p0(i64 4, ptr %35) #11
  %164 = call i32 @_nb_ctrl_point()
  store i32 %164, ptr %35, align 4, !tbaa !6
  br label %165

165:                                              ; preds = %208, %163
  %166 = load i32, ptr %35, align 4, !tbaa !6
  %167 = load ptr, ptr %23, align 8, !tbaa !51
  %168 = getelementptr inbounds nuw %struct.dt_masks_form_gui_points_t, ptr %167, i32 0, i32 1
  %169 = load i32, ptr %168, align 8, !tbaa !57
  %170 = icmp slt i32 %166, %169
  br i1 %170, label %172, label %171

171:                                              ; preds = %165
  store i32 8, ptr %24, align 4
  br label %211

172:                                              ; preds = %165
  call void @llvm.lifetime.start.p0(i64 4, ptr %36) #11
  %173 = load float, ptr %12, align 4, !tbaa !29
  %174 = load ptr, ptr %23, align 8, !tbaa !51
  %175 = getelementptr inbounds nuw %struct.dt_masks_form_gui_points_t, ptr %174, i32 0, i32 0
  %176 = load ptr, ptr %175, align 8, !tbaa !53
  %177 = load i32, ptr %35, align 4, !tbaa !6
  %178 = mul nsw i32 %177, 2
  %179 = sext i32 %178 to i64
  %180 = getelementptr inbounds float, ptr %176, i64 %179
  %181 = load float, ptr %180, align 4, !tbaa !29
  %182 = fsub reassoc nsz arcp contract afn float %173, %181
  store float %182, ptr %36, align 4, !tbaa !29
  call void @llvm.lifetime.start.p0(i64 4, ptr %37) #11
  %183 = load float, ptr %13, align 4, !tbaa !29
  %184 = load ptr, ptr %23, align 8, !tbaa !51
  %185 = getelementptr inbounds nuw %struct.dt_masks_form_gui_points_t, ptr %184, i32 0, i32 0
  %186 = load ptr, ptr %185, align 8, !tbaa !53
  %187 = load i32, ptr %35, align 4, !tbaa !6
  %188 = mul nsw i32 %187, 2
  %189 = add nsw i32 %188, 1
  %190 = sext i32 %189 to i64
  %191 = getelementptr inbounds float, ptr %186, i64 %190
  %192 = load float, ptr %191, align 4, !tbaa !29
  %193 = fsub reassoc nsz arcp contract afn float %183, %192
  store float %193, ptr %37, align 4, !tbaa !29
  call void @llvm.lifetime.start.p0(i64 4, ptr %38) #11
  %194 = load float, ptr %36, align 4, !tbaa !29
  %195 = call reassoc nsz arcp contract afn float @sqf(float noundef %194)
  %196 = load float, ptr %37, align 4, !tbaa !29
  %197 = call reassoc nsz arcp contract afn float @sqf(float noundef %196)
  %198 = fadd reassoc nsz arcp contract afn float %195, %197
  store float %198, ptr %38, align 4, !tbaa !29
  %199 = load float, ptr %38, align 4, !tbaa !29
  %200 = load float, ptr %25, align 4, !tbaa !29
  %201 = fcmp reassoc nsz arcp contract afn olt float %199, %200
  br i1 %201, label %202, label %204

202:                                              ; preds = %172
  %203 = load ptr, ptr %18, align 8, !tbaa !32
  store i32 1, ptr %203, align 4, !tbaa !6
  store i32 1, ptr %24, align 4
  br label %205

204:                                              ; preds = %172
  store i32 0, ptr %24, align 4
  br label %205

205:                                              ; preds = %204, %202
  call void @llvm.lifetime.end.p0(i64 4, ptr %38) #11
  call void @llvm.lifetime.end.p0(i64 4, ptr %37) #11
  call void @llvm.lifetime.end.p0(i64 4, ptr %36) #11
  %206 = load i32, ptr %24, align 4
  switch i32 %206, label %211 [
    i32 0, label %207
  ]

207:                                              ; preds = %205
  br label %208

208:                                              ; preds = %207
  %209 = load i32, ptr %35, align 4, !tbaa !6
  %210 = add nsw i32 %209, 1
  store i32 %210, ptr %35, align 4, !tbaa !6
  br label %165

211:                                              ; preds = %205, %171
  call void @llvm.lifetime.end.p0(i64 4, ptr %35) #11
  %212 = load i32, ptr %24, align 4
  switch i32 %212, label %214 [
    i32 8, label %213
  ]

213:                                              ; preds = %211
  store i32 0, ptr %24, align 4
  br label %214

214:                                              ; preds = %213, %211, %161, %112
  call void @llvm.lifetime.end.p0(i64 4, ptr %26) #11
  call void @llvm.lifetime.end.p0(i64 4, ptr %25) #11
  br label %215

215:                                              ; preds = %214, %55
  call void @llvm.lifetime.end.p0(i64 8, ptr %23) #11
  %216 = load i32, ptr %24, align 4
  switch i32 %216, label %218 [
    i32 0, label %217
    i32 1, label %217
  ]

217:                                              ; preds = %41, %215, %215
  ret void

218:                                              ; preds = %215
  unreachable
}