; Function Attrs: nounwind uwtable
define internal void @_gradient_get_distance(float noundef %0, float noundef %1, float noundef %2, ptr noundef readonly %3, i32 noundef %4, i32 %5, ptr noundef writeonly captures(none) %6, ptr noundef writeonly captures(none) %7, ptr noundef writeonly captures(none) %8, ptr noundef writeonly captures(none) %9, ptr noundef captures(none) %10) #0 {
  %.not = icmp eq ptr %3, null
  br i1 %.not, label %.loopexit, label %12

12:                                               ; preds = %11
  store i32 0, ptr %9, align 4, !tbaa !30
  store i32 0, ptr %7, align 4, !tbaa !30
  store i32 0, ptr %6, align 4, !tbaa !30
  store i32 -1, ptr %8, align 4, !tbaa !30
  store float 0x47EFFFFFE0000000, ptr %10, align 4, !tbaa !27
  %13 = load ptr, ptr %3, align 8, !tbaa !32
  %14 = tail call ptr @g_list_nth_data(ptr noundef %13, i32 noundef %4) #13
  %.not68 = icmp eq ptr %14, null
  br i1 %.not68, label %.loopexit, label %15

15:                                               ; preds = %12
  %16 = fmul reassoc nsz arcp contract afn float %2, %2
  %17 = load ptr, ptr %14, align 8, !tbaa !33
  %.promoted = load float, ptr %10, align 4, !tbaa !27
  br label %23

18:                                               ; preds = %23
  br i1 %39, label %.loopexit.sink.split, label %.preheader

.preheader:                                       ; preds = %18
  %19 = getelementptr inbounds nuw i8, ptr %14, i64 24
  %20 = load i32, ptr %19, align 8, !tbaa !36
  %.not6976 = icmp sgt i32 %20, 0
  br i1 %.not6976, label %.critedge.lr.ph, label %.critedge71.preheader

.critedge.lr.ph:                                  ; preds = %.preheader
  %21 = getelementptr inbounds nuw i8, ptr %14, i64 16
  %22 = load ptr, ptr %21, align 8, !tbaa !37
  %wide.trip.count = zext nneg i32 %20 to i64
  br label %.critedge

23:                                               ; preds = %15, %23
  %indvars.iv = phi i64 [ 0, %15 ], [ %indvars.iv.next, %23 ]
  %.06275 = phi float [ 0.000000e+00, %15 ], [ %40, %23 ]
  %24 = phi float [ %.promoted, %15 ], [ %36, %23 ]
  %25 = shl nuw nsw i64 %indvars.iv, 1
  %26 = getelementptr inbounds nuw float, ptr %17, i64 %25
  %27 = load float, ptr %26, align 4, !tbaa !27
  %28 = fsub reassoc nsz arcp contract afn float %0, %27
  %29 = or disjoint i64 %25, 1
  %30 = getelementptr inbounds nuw float, ptr %17, i64 %29
  %31 = load float, ptr %30, align 4, !tbaa !27
  %32 = fsub reassoc nsz arcp contract afn float %1, %31
  %33 = fmul reassoc nsz arcp contract afn float %28, %28
  %34 = fmul reassoc nsz arcp contract afn float %32, %32
  %35 = fadd reassoc nsz arcp contract afn float %34, %33
  %36 = tail call reassoc nsz arcp contract afn float @llvm.minnum.f32(float %24, float %35)
  store float %36, ptr %10, align 4, !tbaa !27
  %37 = fcmp reassoc nsz arcp contract afn une float %.06275, 0.000000e+00
  %38 = fcmp reassoc nsz arcp contract afn olt float %35, %16
  %39 = select i1 %37, i1 true, i1 %38
  %40 = uitofp i1 %39 to float
  %indvars.iv.next = add nuw nsw i64 %indvars.iv, 1
  %exitcond.not = icmp eq i64 %indvars.iv.next, 3
  br i1 %exitcond.not, label %18, label %23

41:                                               ; preds = %.critedge
  %indvars.iv.next81 = add nuw nsw i64 %indvars.iv80, 1
  %exitcond83.not = icmp eq i64 %indvars.iv.next81, %wide.trip.count
  br i1 %exitcond83.not, label %.critedge71.preheader, label %.critedge

.critedge71.preheader:                            ; preds = %41, %.preheader
  %42 = getelementptr inbounds nuw i8, ptr %14, i64 8
  %43 = load i32, ptr %42, align 8, !tbaa !38
  %44 = icmp sgt i32 %43, 3
  br i1 %44, label %.critedge73.lr.ph, label %.loopexit

.critedge73.lr.ph:                                ; preds = %.critedge71.preheader
  %wide.trip.count87 = zext nneg i32 %43 to i64
  br label %.critedge73

.critedge:                                        ; preds = %.critedge.lr.ph, %41
  %indvars.iv80 = phi i64 [ 0, %.critedge.lr.ph ], [ %indvars.iv.next81, %41 ]
  %45 = shl nuw nsw i64 %indvars.iv80, 1
  %46 = getelementptr inbounds nuw float, ptr %22, i64 %45
  %47 = load float, ptr %46, align 4, !tbaa !27
  %48 = fsub reassoc nsz arcp contract afn float %0, %47
  %49 = or disjoint i64 %45, 1
  %50 = getelementptr inbounds nuw float, ptr %22, i64 %49
  %51 = load float, ptr %50, align 4, !tbaa !27
  %52 = fsub reassoc nsz arcp contract afn float %1, %51
  %53 = fmul reassoc nsz arcp contract afn float %48, %48
  %54 = fmul reassoc nsz arcp contract afn float %52, %52
  %55 = fadd reassoc nsz arcp contract afn float %54, %53
  %56 = fcmp reassoc nsz arcp contract afn uge float %55, %16
  br i1 %56, label %41, label %.loopexit.sink.split

.critedge71:                                      ; preds = %.critedge73
  %indvars.iv.next85 = add nuw nsw i64 %indvars.iv84, 1
  %exitcond88.not = icmp eq i64 %indvars.iv.next85, %wide.trip.count87
  br i1 %exitcond88.not, label %.loopexit, label %.critedge73

.critedge73:                                      ; preds = %.critedge73.lr.ph, %.critedge71
  %indvars.iv84 = phi i64 [ 3, %.critedge73.lr.ph ], [ %indvars.iv.next85, %.critedge71 ]
  %57 = shl nuw nsw i64 %indvars.iv84, 1
  %58 = getelementptr inbounds nuw float, ptr %17, i64 %57
  %59 = load float, ptr %58, align 4, !tbaa !27
  %60 = fsub reassoc nsz arcp contract afn float %0, %59
  %61 = or disjoint i64 %57, 1
  %62 = getelementptr inbounds nuw float, ptr %17, i64 %61
  %63 = load float, ptr %62, align 4, !tbaa !27
  %64 = fsub reassoc nsz arcp contract afn float %1, %63
  %65 = fmul reassoc nsz arcp contract afn float %60, %60
  %66 = fmul reassoc nsz arcp contract afn float %64, %64
  %67 = fadd reassoc nsz arcp contract afn float %66, %65
  %68 = fcmp reassoc nsz arcp contract afn uge float %67, %16
  br i1 %68, label %.critedge71, label %.loopexit.sink.split

.loopexit.sink.split:                             ; preds = %.critedge, %.critedge73, %18
  %.sink = phi ptr [ %6, %18 ], [ %6, %.critedge73 ], [ %7, %.critedge ]
  store i32 1, ptr %.sink, align 4, !tbaa !30
  br label %.loopexit

.loopexit:                                        ; preds = %.critedge71, %.loopexit.sink.split, %.critedge71.preheader, %12, %11
  ret void
}